; ModuleID = 'source-C-CXX/52/756.c'
source_filename = "source-C-CXX/52/756.c"
target datalayout = "e-m:e-p270:32:32-p271:32:32-p272:64:64-i64:64-f80:128-n8:16:32:64-S128"
target triple = "x86_64-pc-linux-gnu"

@.str = private unnamed_addr constant [3 x i8] c"%d\00", align 1
@.str.1 = private unnamed_addr constant [4 x i8] c"%d,\00", align 1

; Function Attrs: nofree nounwind sspstrong uwtable
define dso_local void @main() local_unnamed_addr #0 {
  %1 = alloca [300 x i32], align 16
  %2 = alloca [300 x i32], align 16
  %3 = alloca i32, align 4
  %4 = bitcast [300 x i32]* %1 to i8*
  call void @llvm.lifetime.start.p0i8(i64 1200, i8* nonnull %4) #3
  %5 = bitcast [300 x i32]* %2 to i8*
  call void @llvm.lifetime.start.p0i8(i64 1200, i8* nonnull %5) #3
  %6 = bitcast i32* %3 to i8*
  call void @llvm.lifetime.start.p0i8(i64 4, i8* nonnull %6) #3
  %7 = call i32 (i8*, ...) @__isoc99_scanf(i8* getelementptr inbounds ([3 x i8], [3 x i8]* @.str, i64 0, i64 0), i32* nonnull %3)
  %8 = load i32, i32* %3, align 4, !tbaa !5
  %9 = icmp sgt i32 %8, 0
  br i1 %9, label %12, label %10

10:                                               ; preds = %0
  %11 = getelementptr inbounds [300 x i32], [300 x i32]* %2, i64 0, i64 0
  br label %69

12:                                               ; preds = %0, %12
  %13 = phi i64 [ %16, %12 ], [ 0, %0 ]
  %14 = getelementptr inbounds [300 x i32], [300 x i32]* %1, i64 0, i64 %13
  %15 = call i32 (i8*, ...) @__isoc99_scanf(i8* getelementptr inbounds ([3 x i8], [3 x i8]* @.str, i64 0, i64 0), i32* nonnull %14)
  %16 = add nuw nsw i64 %13, 1
  %17 = load i32, i32* %3, align 4, !tbaa !5
  %18 = sext i32 %17 to i64
  %19 = icmp slt i64 %16, %18
  br i1 %19, label %12, label %20, !llvm.loop !9

20:                                               ; preds = %12
  %21 = getelementptr inbounds [300 x i32], [300 x i32]* %2, i64 0, i64 0
  %22 = icmp sgt i32 %17, 0
  br i1 %22, label %23, label %69

23:                                               ; preds = %20, %54
  %24 = phi i32 [ %55, %54 ], [ %17, %20 ]
  %25 = phi i64 [ %58, %54 ], [ 0, %20 ]
  %26 = phi i32 [ %57, %54 ], [ 0, %20 ]
  %27 = phi i32* [ %56, %54 ], [ %21, %20 ]
  %28 = icmp eq i64 %25, 0
  br i1 %28, label %44, label %29

29:                                               ; preds = %23
  %30 = getelementptr inbounds [300 x i32], [300 x i32]* %1, i64 0, i64 %25
  %31 = load i32, i32* %30, align 4, !tbaa !5
  br label %36

32:                                               ; preds = %54
  %33 = icmp sgt i32 %57, 1
  br i1 %33, label %34, label %69

34:                                               ; preds = %32
  %35 = add nsw i32 %57, -1
  br label %61

36:                                               ; preds = %29, %41
  %37 = phi i64 [ 0, %29 ], [ %42, %41 ]
  %38 = getelementptr inbounds [300 x i32], [300 x i32]* %1, i64 0, i64 %37
  %39 = load i32, i32* %38, align 4, !tbaa !5
  %40 = icmp eq i32 %31, %39
  br i1 %40, label %44, label %41

41:                                               ; preds = %36
  %42 = add nuw nsw i64 %37, 1
  %43 = icmp eq i64 %42, %25
  br i1 %43, label %44, label %36, !llvm.loop !11

44:                                               ; preds = %41, %36, %23
  %45 = phi i64 [ 0, %23 ], [ %37, %36 ], [ %25, %41 ]
  %46 = and i64 %45, 4294967295
  %47 = icmp eq i64 %46, %25
  br i1 %47, label %48, label %54

48:                                               ; preds = %44
  %49 = getelementptr inbounds [300 x i32], [300 x i32]* %1, i64 0, i64 %25
  %50 = load i32, i32* %49, align 4, !tbaa !5
  %51 = getelementptr inbounds i32, i32* %27, i64 1
  store i32 %50, i32* %27, align 4, !tbaa !5
  %52 = add nsw i32 %26, 1
  %53 = load i32, i32* %3, align 4, !tbaa !5
  br label %54

54:                                               ; preds = %44, %48
  %55 = phi i32 [ %53, %48 ], [ %24, %44 ]
  %56 = phi i32* [ %51, %48 ], [ %27, %44 ]
  %57 = phi i32 [ %52, %48 ], [ %26, %44 ]
  %58 = add nuw nsw i64 %25, 1
  %59 = sext i32 %55 to i64
  %60 = icmp slt i64 %58, %59
  br i1 %60, label %23, label %32, !llvm.loop !12

61:                                               ; preds = %34, %61
  %62 = phi i32 [ %67, %61 ], [ 0, %34 ]
  %63 = phi i32* [ %64, %61 ], [ %21, %34 ]
  %64 = getelementptr inbounds i32, i32* %63, i64 1
  %65 = load i32, i32* %63, align 4, !tbaa !5
  %66 = call i32 (i8*, ...) @printf(i8* nonnull dereferenceable(1) getelementptr inbounds ([4 x i8], [4 x i8]* @.str.1, i64 0, i64 0), i32 %65)
  %67 = add nuw nsw i32 %62, 1
  %68 = icmp eq i32 %67, %35
  br i1 %68, label %69, label %61, !llvm.loop !13

69:                                               ; preds = %61, %10, %20, %32
  %70 = phi i32* [ %21, %32 ], [ %11, %10 ], [ %21, %20 ], [ %64, %61 ]
  %71 = load i32, i32* %70, align 4, !tbaa !5
  %72 = call i32 (i8*, ...) @printf(i8* nonnull dereferenceable(1) getelementptr inbounds ([3 x i8], [3 x i8]* @.str, i64 0, i64 0), i32 %71)
  call void @llvm.lifetime.end.p0i8(i64 4, i8* nonnull %6) #3
  call void @llvm.lifetime.end.p0i8(i64 1200, i8* nonnull %5) #3
  call void @llvm.lifetime.end.p0i8(i64 1200, i8* nonnull %4) #3
  ret void
}

; Function Attrs: argmemonly mustprogress nofree nosync nounwind willreturn
declare void @llvm.lifetime.start.p0i8(i64 immarg, i8* nocapture) #1

; Function Attrs: nofree nounwind
declare noundef i32 @__isoc99_scanf(i8* nocapture noundef readonly, ...) local_unnamed_addr #2

; Function Attrs: nofree nounwind
declare noundef i32 @printf(i8* nocapture noundef readonly, ...) local_unnamed_addr #2

; Function Attrs: argmemonly mustprogress nofree nosync nounwind willreturn
declare void @llvm.lifetime.end.p0i8(i64 immarg, i8* nocapture) #1


!llvm.module.flags = !{!0, !1, !2, !3}
!llvm.ident = !{!4}

!0 = !{i32 1, !"wchar_size", i32 4}
!1 = !{i32 7, !"PIC Level", i32 2}
!2 = !{i32 7, !"PIE Level", i32 2}
!3 = !{i32 7, !"uwtable", i32 1}
!4 = !{!"clang version 13.0.0"}
!5 = !{!6, !6, i64 0}
!6 = !{!"int", !7, i64 0}
!7 = !{!"omnipotent char", !8, i64 0}
!8 = !{!"Simple C/C++ TBAA"}
!9 = distinct !{!9, !10}
!10 = !{!"llvm.loop.mustprogress"}
!11 = distinct !{!11, !10}
!12 = distinct !{!12, !10}
!13 = distinct !{!13, !10}
